; Function Attrs: nounwind uwtable
define hidden ptr @b2GetJointSimCheckType(i64 %0, i32 noundef %1) local_unnamed_addr #0 {
  %.sroa.2.0.extract.shift = lshr i64 %0, 32
  %3 = trunc nuw i64 %.sroa.2.0.extract.shift to i32
  %4 = and i32 %3, 65535
  %5 = tail call ptr @b2GetWorld(i32 noundef %4) #10
  %6 = getelementptr inbounds nuw i8, ptr %5, i64 1783
  %7 = load i8, ptr %6, align 1, !tbaa !60, !range !103, !noundef !104
  %8 = trunc nuw i8 %7 to i1
  br i1 %8, label %29, label %9

9:                                                ; preds = %2
  %10 = getelementptr inbounds nuw i8, ptr %5, i64 1112
  %.val.i = load ptr, ptr %10, align 8, !tbaa !10
  %11 = shl i64 %0, 32
  %sext.i = add i64 %11, -4294967296
  %12 = ashr exact i64 %sext.i, 32
  %13 = getelementptr inbounds %struct.b2Joint, ptr %.val.i, i64 %12
  %14 = getelementptr inbounds nuw i8, ptr %13, i64 8
  %15 = load i32, ptr %14, align 8, !tbaa !53
  %16 = icmp eq i32 %15, 2
  br i1 %16, label %17, label %23

17:                                               ; preds = %9
  %18 = getelementptr inbounds nuw i8, ptr %13, i64 12
  %19 = load i32, ptr %18, align 4, !tbaa !55
  %20 = sext i32 %19 to i64
  %.idx.i = mul nsw i64 %20, 56
  %21 = getelementptr i8, ptr %5, i64 368
  %22 = getelementptr i8, ptr %21, i64 %.idx.i
  br label %b2GetJointSim.exit

23:                                               ; preds = %9
  %24 = getelementptr inbounds nuw i8, ptr %5, i64 1072
  %.val12.i = load ptr, ptr %24, align 8, !tbaa !56
  %25 = sext i32 %15 to i64
  %26 = getelementptr inbounds %struct.b2SolverSet, ptr %.val12.i, i64 %25, i32 2
  br label %b2GetJointSim.exit

b2GetJointSim.exit:                               ; preds = %17, %23
  %.val11.sink.in.i = phi ptr [ %26, %23 ], [ %22, %17 ]
  %.val11.sink.i = load ptr, ptr %.val11.sink.in.i, align 8, !tbaa !14
  %.sink13.in.i = getelementptr inbounds nuw i8, ptr %13, i64 16
  %.sink13.i = load i32, ptr %.sink13.in.i, align 8, !tbaa !59
  %27 = sext i32 %.sink13.i to i64
  %28 = getelementptr inbounds %struct.b2JointSim, ptr %.val11.sink.i, i64 %27
  br label %29

29:                                               ; preds = %2, %b2GetJointSim.exit
  %.0 = phi ptr [ %28, %b2GetJointSim.exit ], [ null, %2 ]
  ret ptr %.0
}